target datalayout = "e-m:e-p270:32:32-p271:32:32-p272:64:64-i64:64-i128:128-f80:128-n8:16:32:64-S128"
target triple = "x86_64-pc-linux-gnu"

; Function Attrs: nounwind uwtable
define i32 @TextLength(ptr noundef %0) #0 {
  %2 = alloca ptr, align 8
  %3 = alloca i32, align 4
  store ptr %0, ptr %2, align 8
  call void @llvm.lifetime.start.p0(i64 4, ptr %3) #13
  store i32 0, ptr %3, align 4
  %4 = load ptr, ptr %2, align 8
  %5 = icmp ne ptr %4, null
  br i1 %5, label %6, label %16

6:                                                ; preds = %1
  br label %7

7:                                                ; preds = %12, %6
  %8 = load ptr, ptr %2, align 8
  %9 = getelementptr inbounds nuw i8, ptr %8, i32 1
  store ptr %9, ptr %2, align 8
  %10 = load i8, ptr %8, align 1
  %11 = icmp ne i8 %10, 0
  br i1 %11, label %12, label %15

12:                                               ; preds = %7
  %13 = load i32, ptr %3, align 4
  %14 = add i32 %13, 1
  store i32 %14, ptr %3, align 4
  br label %7

15:                                               ; preds = %7
  br label %16

16:                                               ; preds = %15, %1
  %17 = load i32, ptr %3, align 4
  call void @llvm.lifetime.end.p0(i64 4, ptr %3) #13
  ret i32 %17
}

; Function Attrs: nounwind uwtable
define ptr @TextReplace(ptr noundef %0, ptr noundef %1, ptr noundef %2) #0 {
  %4 = alloca ptr, align 8
  %5 = alloca ptr, align 8
  %6 = alloca ptr, align 8
  %7 = alloca ptr, align 8
  %8 = alloca ptr, align 8
  %9 = alloca ptr, align 8
  %10 = alloca ptr, align 8
  %11 = alloca i32, align 4
  %12 = alloca i32, align 4
  %13 = alloca i32, align 4
  %14 = alloca i32, align 4
  %15 = alloca i32, align 4
  store ptr %0, ptr %5, align 8
  store ptr %1, ptr %6, align 8
  store ptr %2, ptr %7, align 8
  %16 = load ptr, ptr %5, align 8
  %17 = icmp ne ptr %16, null
  br i1 %17, label %18, label %24

18:                                               ; preds = %3
  %19 = load ptr, ptr %6, align 8
  %20 = icmp ne ptr %19, null
  br i1 %20, label %21, label %24

21:                                               ; preds = %18
  %22 = load ptr, ptr %7, align 8
  %23 = icmp ne ptr %22, null
  br i1 %23, label %25, label %24

24:                                               ; preds = %21, %18, %3
  store ptr null, ptr %4, align 8
  br label %104

25:                                               ; preds = %21
  call void @llvm.lifetime.start.p0(i64 8, ptr %8) #13
  store ptr null, ptr %8, align 8
  call void @llvm.lifetime.start.p0(i64 8, ptr %9) #13
  store ptr null, ptr %9, align 8
  call void @llvm.lifetime.start.p0(i64 8, ptr %10) #13
  store ptr null, ptr %10, align 8
  call void @llvm.lifetime.start.p0(i64 4, ptr %11) #13
  store i32 0, ptr %11, align 4
  call void @llvm.lifetime.start.p0(i64 4, ptr %12) #13
  store i32 0, ptr %12, align 4
  call void @llvm.lifetime.start.p0(i64 4, ptr %13) #13
  store i32 0, ptr %13, align 4
  call void @llvm.lifetime.start.p0(i64 4, ptr %14) #13
  store i32 0, ptr %14, align 4
  %26 = load ptr, ptr %6, align 8
  %27 = call i32 @TextLength(ptr noundef %26)
  store i32 %27, ptr %11, align 4
  %28 = load i32, ptr %11, align 4
  %29 = icmp eq i32 %28, 0
  br i1 %29, label %30, label %31

30:                                               ; preds = %25
  store ptr null, ptr %4, align 8
  store i32 1, ptr %15, align 4
  br label %103

31:                                               ; preds = %25
  %32 = load ptr, ptr %7, align 8
  %33 = call i32 @TextLength(ptr noundef %32)
  store i32 %33, ptr %12, align 4
  %34 = load ptr, ptr %5, align 8
  store ptr %34, ptr %9, align 8
  store i32 0, ptr %14, align 4
  br label %35

35:                                               ; preds = %45, %31
  %36 = load ptr, ptr %9, align 8
  %37 = load ptr, ptr %6, align 8
  %38 = call ptr @strstr(ptr noundef %36, ptr noundef %37) #15
  store ptr %38, ptr %10, align 8
  %39 = icmp ne ptr %38, null
  br i1 %39, label %40, label %48

40:                                               ; preds = %35
  %41 = load ptr, ptr %10, align 8
  %42 = load i32, ptr %11, align 4
  %43 = sext i32 %42 to i64
  %44 = getelementptr inbounds i8, ptr %41, i64 %43
  store ptr %44, ptr %9, align 8
  br label %45

45:                                               ; preds = %40
  %46 = load i32, ptr %14, align 4
  %47 = add nsw i32 %46, 1
  store i32 %47, ptr %14, align 4
  br label %35

48:                                               ; preds = %35
  %49 = load ptr, ptr %5, align 8
  %50 = call i32 @TextLength(ptr noundef %49)
  %51 = load i32, ptr %12, align 4
  %52 = load i32, ptr %11, align 4
  %53 = sub nsw i32 %51, %52
  %54 = load i32, ptr %14, align 4
  %55 = mul nsw i32 %53, %54
  %56 = add i32 %50, %55
  %57 = add i32 %56, 1
  %58 = zext i32 %57 to i64
  %59 = call noalias ptr @malloc(i64 noundef %58) #16
  store ptr %59, ptr %8, align 8
  store ptr %59, ptr %10, align 8
  %60 = load ptr, ptr %8, align 8
  %61 = icmp ne ptr %60, null
  br i1 %61, label %63, label %62

62:                                               ; preds = %48
  store ptr null, ptr %4, align 8
  store i32 1, ptr %15, align 4
  br label %103

63:                                               ; preds = %48
  br label %64

64:                                               ; preds = %68, %63
  %65 = load i32, ptr %14, align 4
  %66 = add nsw i32 %65, -1
  store i32 %66, ptr %14, align 4
  %67 = icmp ne i32 %65, 0
  br i1 %67, label %68, label %98

68:                                               ; preds = %64
  %69 = load ptr, ptr %5, align 8
  %70 = load ptr, ptr %6, align 8
  %71 = call ptr @strstr(ptr noundef %69, ptr noundef %70) #15
  store ptr %71, ptr %9, align 8
  %72 = load ptr, ptr %9, align 8
  %73 = load ptr, ptr %5, align 8
  %74 = ptrtoint ptr %72 to i64
  %75 = ptrtoint ptr %73 to i64
  %76 = sub i64 %74, %75
  %77 = trunc i64 %76 to i32
  store i32 %77, ptr %13, align 4
  %78 = load ptr, ptr %10, align 8
  %79 = load ptr, ptr %5, align 8
  %80 = load i32, ptr %13, align 4
  %81 = sext i32 %80 to i64
  %82 = call ptr @strncpy(ptr noundef %78, ptr noundef %79, i64 noundef %81) #13
  %83 = load i32, ptr %13, align 4
  %84 = sext i32 %83 to i64
  %85 = getelementptr inbounds i8, ptr %82, i64 %84
  store ptr %85, ptr %10, align 8
  %86 = load ptr, ptr %10, align 8
  %87 = load ptr, ptr %7, align 8
  %88 = call ptr @strcpy(ptr noundef %86, ptr noundef %87) #13
  %89 = load i32, ptr %12, align 4
  %90 = sext i32 %89 to i64
  %91 = getelementptr inbounds i8, ptr %88, i64 %90
  store ptr %91, ptr %10, align 8
  %92 = load i32, ptr %13, align 4
  %93 = load i32, ptr %11, align 4
  %94 = add nsw i32 %92, %93
  %95 = load ptr, ptr %5, align 8
  %96 = sext i32 %94 to i64
  %97 = getelementptr inbounds i8, ptr %95, i64 %96
  store ptr %97, ptr %5, align 8
  br label %64

98:                                               ; preds = %64
  %99 = load ptr, ptr %10, align 8
  %100 = load ptr, ptr %5, align 8
  %101 = call ptr @strcpy(ptr noundef %99, ptr noundef %100) #13
  %102 = load ptr, ptr %8, align 8
  store ptr %102, ptr %4, align 8
  store i32 1, ptr %15, align 4
  br label %103

103:                                              ; preds = %98, %62, %30
  call void @llvm.lifetime.end.p0(i64 4, ptr %14) #13
  call void @llvm.lifetime.end.p0(i64 4, ptr %13) #13
  call void @llvm.lifetime.end.p0(i64 4, ptr %12) #13
  call void @llvm.lifetime.end.p0(i64 4, ptr %11) #13
  call void @llvm.lifetime.end.p0(i64 8, ptr %10) #13
  call void @llvm.lifetime.end.p0(i64 8, ptr %9) #13
  call void @llvm.lifetime.end.p0(i64 8, ptr %8) #13
  br label %104

104:                                              ; preds = %103, %24
  %105 = load ptr, ptr %4, align 8
  ret ptr %105
}