; Function Attrs: nofree nounwind uwtable
define noundef ptr @TextReplace(ptr noundef %0, ptr noundef readonly captures(address_is_null) %1, ptr noundef readonly captures(address_is_null) %2) local_unnamed_addr #3 {
  %4 = icmp ne ptr %0, null
  %5 = icmp ne ptr %1, null
  %or.cond = and i1 %4, %5
  %6 = icmp ne ptr %2, null
  %or.cond3 = and i1 %or.cond, %6
  br i1 %or.cond3, label %.preheader.i, label %TextLength.exit.thread

.preheader.i:                                     ; preds = %3
  %7 = load i8, ptr %1, align 1
  %.not56.i = icmp eq i8 %7, 0
  br i1 %.not56.i, label %TextLength.exit.thread, label %.lr.ph.i

.lr.ph.i:                                         ; preds = %.preheader.i, %.lr.ph.i
  %.18.i = phi i32 [ %9, %.lr.ph.i ], [ 0, %.preheader.i ]
  %.037.i = phi ptr [ %8, %.lr.ph.i ], [ %1, %.preheader.i ]
  %8 = getelementptr inbounds nuw i8, ptr %.037.i, i64 1
  %9 = add i32 %.18.i, 1
  %10 = load i8, ptr %8, align 1
  %.not5.i = icmp eq i8 %10, 0
  br i1 %.not5.i, label %TextLength.exit, label %.lr.ph.i

TextLength.exit:                                  ; preds = %.lr.ph.i
  %11 = icmp eq i32 %9, 0
  br i1 %11, label %TextLength.exit.thread, label %.preheader.i52

.preheader.i52:                                   ; preds = %TextLength.exit
  %12 = load i8, ptr %2, align 1
  %.not56.i53 = icmp eq i8 %12, 0
  br i1 %.not56.i53, label %TextLength.exit59, label %.lr.ph.i54

.lr.ph.i54:                                       ; preds = %.preheader.i52, %.lr.ph.i54
  %.18.i55 = phi i32 [ %14, %.lr.ph.i54 ], [ 0, %.preheader.i52 ]
  %.037.i56 = phi ptr [ %13, %.lr.ph.i54 ], [ %2, %.preheader.i52 ]
  %13 = getelementptr inbounds nuw i8, ptr %.037.i56, i64 1
  %14 = add i32 %.18.i55, 1
  %15 = load i8, ptr %13, align 1
  %.not5.i57 = icmp eq i8 %15, 0
  br i1 %.not5.i57, label %TextLength.exit59, label %.lr.ph.i54

TextLength.exit59:                                ; preds = %.lr.ph.i54, %.preheader.i52
  %.0.i58 = phi i32 [ 0, %.preheader.i52 ], [ %14, %.lr.ph.i54 ]
  %16 = tail call ptr @strstr(ptr noundef nonnull dereferenceable(1) %0, ptr noundef nonnull dereferenceable(1) %1) #43
  %.not72 = icmp eq ptr %16, null
  br i1 %.not72, label %.preheader.i61, label %.lr.ph

.lr.ph:                                           ; preds = %TextLength.exit59
  %17 = sext i32 %9 to i64
  br label %18

18:                                               ; preds = %.lr.ph, %18
  %19 = phi ptr [ %16, %.lr.ph ], [ %22, %18 ]
  %.073 = phi i32 [ 0, %.lr.ph ], [ %21, %18 ]
  %20 = getelementptr inbounds i8, ptr %19, i64 %17
  %21 = add nuw nsw i32 %.073, 1
  %22 = tail call ptr @strstr(ptr noundef nonnull dereferenceable(1) %20, ptr noundef nonnull dereferenceable(1) %1) #43
  %.not = icmp eq ptr %22, null
  br i1 %.not, label %.preheader.i61, label %18

.preheader.i61:                                   ; preds = %18, %TextLength.exit59
  %.0.lcssa = phi i32 [ 0, %TextLength.exit59 ], [ %21, %18 ]
  %23 = load i8, ptr %0, align 1
  %.not56.i62 = icmp eq i8 %23, 0
  br i1 %.not56.i62, label %TextLength.exit68, label %.lr.ph.i63

.lr.ph.i63:                                       ; preds = %.preheader.i61, %.lr.ph.i63
  %.18.i64 = phi i32 [ %25, %.lr.ph.i63 ], [ 0, %.preheader.i61 ]
  %.037.i65 = phi ptr [ %24, %.lr.ph.i63 ], [ %0, %.preheader.i61 ]
  %24 = getelementptr inbounds nuw i8, ptr %.037.i65, i64 1
  %25 = add i32 %.18.i64, 1
  %26 = load i8, ptr %24, align 1
  %.not5.i66 = icmp eq i8 %26, 0
  br i1 %.not5.i66, label %TextLength.exit68, label %.lr.ph.i63

TextLength.exit68:                                ; preds = %.lr.ph.i63, %.preheader.i61
  %.0.i67 = phi i32 [ 0, %.preheader.i61 ], [ %25, %.lr.ph.i63 ]
  %27 = sub nsw i32 %.0.i58, %9
  %28 = mul nsw i32 %.0.lcssa, %27
  %29 = add i32 %28, 1
  %30 = add i32 %29, %.0.i67
  %31 = zext i32 %30 to i64
  %32 = tail call noalias ptr @malloc(i64 noundef %31) #44
  %.not49 = icmp eq ptr %32, null
  br i1 %.not49, label %TextLength.exit.thread, label %.preheader

.preheader:                                       ; preds = %TextLength.exit68
  %.not5074 = icmp eq i32 %.0.lcssa, 0
  br i1 %.not5074, label %._crit_edge, label %.lr.ph78

.lr.ph78:                                         ; preds = %.preheader
  %33 = sext i32 %.0.i58 to i64
  br label %34

34:                                               ; preds = %.lr.ph78, %34
  %.177 = phi i32 [ %.0.lcssa, %.lr.ph78 ], [ %35, %34 ]
  %.03876 = phi ptr [ %32, %.lr.ph78 ], [ %45, %34 ]
  %.04275 = phi ptr [ %0, %.lr.ph78 ], [ %48, %34 ]
  %35 = add nsw i32 %.177, -1
  %36 = tail call ptr @strstr(ptr noundef nonnull dereferenceable(1) %.04275, ptr noundef nonnull dereferenceable(1) %1) #43
  %37 = ptrtoint ptr %36 to i64
  %38 = ptrtoint ptr %.04275 to i64
  %39 = sub i64 %37, %38
  %40 = trunc i64 %39 to i32
  %sext = shl i64 %39, 32
  %41 = ashr exact i64 %sext, 32
  %42 = tail call ptr @strncpy(ptr noundef nonnull %.03876, ptr noundef nonnull %.04275, i64 noundef %41) #41
  %43 = getelementptr inbounds i8, ptr %.03876, i64 %41
  %44 = tail call ptr @strcpy(ptr noundef nonnull dereferenceable(1) %43, ptr noundef nonnull dereferenceable(1) %2) #41
  %45 = getelementptr inbounds i8, ptr %43, i64 %33
  %46 = add nsw i32 %9, %40
  %47 = sext i32 %46 to i64
  %48 = getelementptr inbounds i8, ptr %.04275, i64 %47
  %.not50 = icmp eq i32 %35, 0
  br i1 %.not50, label %._crit_edge, label %34

._crit_edge:                                      ; preds = %34, %.preheader
  %.042.lcssa = phi ptr [ %0, %.preheader ], [ %48, %34 ]
  %.038.lcssa = phi ptr [ %32, %.preheader ], [ %45, %34 ]
  %49 = tail call ptr @strcpy(ptr noundef nonnull dereferenceable(1) %.038.lcssa, ptr noundef nonnull dereferenceable(1) %.042.lcssa) #41
  br label %TextLength.exit.thread

TextLength.exit.thread:                           ; preds = %.preheader.i, %._crit_edge, %TextLength.exit, %TextLength.exit68, %3
  %.040 = phi ptr [ null, %3 ], [ %32, %._crit_edge ], [ null, %TextLength.exit ], [ null, %TextLength.exit68 ], [ null, %.preheader.i ]
  ret ptr %.040
}